; Function Attrs: mustprogress nofree norecurse nosync nounwind memory(argmem: write) uwtable
define void @_ZN5Ipopt7Journal17SetAllPrintLevelsENS_13EJournalLevelE(ptr nocapture noundef nonnull writeonly align 8 dereferenceable(176) %0, i32 noundef %1) unnamed_addr #11 align 2 {
  %3 = getelementptr inbounds i8, ptr %0, i64 48
  br label %4

4:                                                ; preds = %2, %4
  %indvars.iv = phi i64 [ 0, %2 ], [ %indvars.iv.next, %4 ]
  %5 = getelementptr inbounds [32 x i32], ptr %3, i64 0, i64 %indvars.iv
  store i32 %1, ptr %5, align 4
  %indvars.iv.next = add nuw nsw i64 %indvars.iv, 1
  %exitcond.not = icmp eq i64 %indvars.iv.next, 14
  br i1 %exitcond.not, label %6, label %4, !llvm.loop !16

6:                                                ; preds = %4
  ret void
}